; Function Attrs: mustprogress uwtable
define dso_local void @_ZN28cmExportInstallFileGenerator15LoadConfigFilesERSo(ptr noundef nonnull align 8 dereferenceable(496) %0, ptr noundef nonnull align 8 dereferenceable(8) %1) unnamed_addr #3 align 2 personality ptr @__gxx_personality_v0 {
  %3 = alloca [3 x %"struct.std::pair.646"], align 8
  %4 = alloca %"class.std::__cxx11::basic_string", align 8
  %5 = tail call noundef nonnull align 8 dereferenceable(8) ptr @_ZStlsISt11char_traitsIcEERSt13basic_ostreamIcT_ES5_PKc(ptr noundef nonnull align 8 dereferenceable(8) %1, ptr noundef nonnull @.str.39)
  %6 = tail call noundef nonnull align 8 dereferenceable(8) ptr @_ZStlsISt11char_traitsIcEERSt13basic_ostreamIcT_ES5_PKc(ptr noundef nonnull align 8 dereferenceable(8) %5, ptr noundef nonnull @.str.40)
  %7 = getelementptr inbounds i8, ptr %0, i64 136
  %8 = getelementptr inbounds i8, ptr %0, i64 168
  call void @llvm.lifetime.start.p0(i64 72, ptr nonnull %3), !noalias !87
  %9 = tail call { i64, ptr } @_ZNKSt7__cxx1112basic_stringIcSt11char_traitsIcESaIcEEcvSt17basic_string_viewIcS2_EEv(ptr noundef nonnull align 8 dereferenceable(32) %7) #18, !noalias !90
  %10 = extractvalue { i64, ptr } %9, 0
  %11 = extractvalue { i64, ptr } %9, 1
  store i64 %10, ptr %3, align 8, !alias.scope !93, !noalias !90
  %.sroa.2.0..sroa_idx.i.i.i = getelementptr inbounds i8, ptr %3, i64 8
  store ptr %11, ptr %.sroa.2.0..sroa_idx.i.i.i, align 8, !alias.scope !93, !noalias !90
  %12 = getelementptr inbounds i8, ptr %3, i64 16
  store ptr null, ptr %12, align 8, !alias.scope !93, !noalias !90
  %13 = getelementptr inbounds i8, ptr %3, i64 24
  store i64 2, ptr %13, align 8, !alias.scope !96, !noalias !90
  %.sroa.2.0..sroa_idx.i7.i.i = getelementptr inbounds i8, ptr %3, i64 32
  store ptr @.str, ptr %.sroa.2.0..sroa_idx.i7.i.i, align 8, !alias.scope !96, !noalias !90
  %14 = getelementptr inbounds i8, ptr %3, i64 40
  store ptr null, ptr %14, align 8, !alias.scope !96, !noalias !90
  %15 = getelementptr inbounds i8, ptr %3, i64 48
  %16 = tail call { i64, ptr } @_ZNKSt7__cxx1112basic_stringIcSt11char_traitsIcESaIcEEcvSt17basic_string_viewIcS2_EEv(ptr noundef nonnull align 8 dereferenceable(32) %8) #18, !noalias !90
  %17 = extractvalue { i64, ptr } %16, 0
  %18 = extractvalue { i64, ptr } %16, 1
  store i64 %17, ptr %15, align 8, !alias.scope !99, !noalias !90
  %.sroa.2.0..sroa_idx.i16.i.i = getelementptr inbounds i8, ptr %3, i64 56
  store ptr %18, ptr %.sroa.2.0..sroa_idx.i16.i.i, align 8, !alias.scope !99, !noalias !90
  %19 = getelementptr inbounds i8, ptr %3, i64 64
  store ptr null, ptr %19, align 8, !alias.scope !99, !noalias !90
  call void @_Z10cmCatViewsSt16initializer_listISt4pairISt17basic_string_viewIcSt11char_traitsIcEEPNSt7__cxx1112basic_stringIcS3_SaIcEEEEE(ptr dead_on_unwind nonnull writable sret(%"class.std::__cxx11::basic_string") align 8 %4, ptr nonnull %3, i64 3)
  call void @llvm.lifetime.end.p0(i64 72, ptr nonnull %3), !noalias !87
  %20 = invoke noundef nonnull align 8 dereferenceable(8) ptr @_ZStlsIcSt11char_traitsIcESaIcEERSt13basic_ostreamIT_T0_ES7_RKNSt7__cxx1112basic_stringIS4_S5_T1_EE(ptr noundef nonnull align 8 dereferenceable(8) %6, ptr noundef nonnull align 8 dereferenceable(32) %4)
          to label %21 unwind label %36

21:                                               ; preds = %2
  %22 = invoke noundef nonnull align 8 dereferenceable(8) ptr @_ZStlsISt11char_traitsIcEERSt13basic_ostreamIcT_ES5_PKc(ptr noundef nonnull align 8 dereferenceable(8) %20, ptr noundef nonnull @.str.41)
          to label %23 unwind label %36

23:                                               ; preds = %21
  %24 = invoke noundef nonnull align 8 dereferenceable(8) ptr @_ZStlsISt11char_traitsIcEERSt13basic_ostreamIcT_ES5_PKc(ptr noundef nonnull align 8 dereferenceable(8) %22, ptr noundef nonnull @.str.42)
          to label %25 unwind label %36

25:                                               ; preds = %23
  %26 = invoke noundef nonnull align 8 dereferenceable(8) ptr @_ZStlsISt11char_traitsIcEERSt13basic_ostreamIcT_ES5_PKc(ptr noundef nonnull align 8 dereferenceable(8) %24, ptr noundef nonnull @.str.43)
          to label %27 unwind label %36

27:                                               ; preds = %25
  %28 = invoke noundef nonnull align 8 dereferenceable(8) ptr @_ZStlsISt11char_traitsIcEERSt13basic_ostreamIcT_ES5_PKc(ptr noundef nonnull align 8 dereferenceable(8) %26, ptr noundef nonnull @.str.44)
          to label %29 unwind label %36

29:                                               ; preds = %27
  %30 = invoke noundef nonnull align 8 dereferenceable(8) ptr @_ZStlsISt11char_traitsIcEERSt13basic_ostreamIcT_ES5_PKc(ptr noundef nonnull align 8 dereferenceable(8) %28, ptr noundef nonnull @.str.45)
          to label %31 unwind label %36

31:                                               ; preds = %29
  %32 = invoke noundef nonnull align 8 dereferenceable(8) ptr @_ZStlsISt11char_traitsIcEERSt13basic_ostreamIcT_ES5_PKc(ptr noundef nonnull align 8 dereferenceable(8) %30, ptr noundef nonnull @.str.46)
          to label %33 unwind label %36

33:                                               ; preds = %31
  %34 = invoke noundef nonnull align 8 dereferenceable(8) ptr @_ZStlsISt11char_traitsIcEERSt13basic_ostreamIcT_ES5_PKc(ptr noundef nonnull align 8 dereferenceable(8) %32, ptr noundef nonnull @.str.36)
          to label %35 unwind label %36

35:                                               ; preds = %33
  call void @_ZNSt7__cxx1112basic_stringIcSt11char_traitsIcESaIcEED1Ev(ptr noundef nonnull align 8 dereferenceable(32) %4) #18
  ret void

36:                                               ; preds = %33, %31, %29, %27, %25, %23, %21, %2
  %37 = landingpad { ptr, i32 }
          cleanup
  call void @_ZNSt7__cxx1112basic_stringIcSt11char_traitsIcESaIcEED1Ev(ptr noundef nonnull align 8 dereferenceable(32) %4) #18
  resume { ptr, i32 } %37
}